target datalayout = "e-m:e-p270:32:32-p271:32:32-p272:64:64-i64:64-i128:128-f80:128-n8:16:32:64-S128"
target triple = "x86_64-unknown-linux-gnu"

%"class.sat::literal" = type { i32 }
%"class.sat::drat" = type { ptr, %class.svector, ptr, %"class.sat::clause_allocator", ptr, ptr, %class.svector.5, %class.svector.7, %class.vector.9, %class.svector.10, i8, i8, i8, i8, i8, %"struct.sat::drat::stats" }
%class.svector = type { %class.vector }
%class.vector = type { ptr }
%"class.sat::clause_allocator" = type { %class.sat_allocator, %class.id_gen }
%class.sat_allocator = type { ptr, i64, %class.ptr_vector, ptr, [65 x %class.ptr_vector.1] }
%class.ptr_vector = type { %class.vector.0 }
%class.vector.0 = type { ptr }
%class.ptr_vector.1 = type { %class.vector.2 }
%class.vector.2 = type { ptr }
%class.id_gen = type { i32, %class.svector.3 }
%class.svector.3 = type { %class.vector.4 }
%class.vector.4 = type { ptr }
%class.svector.5 = type { %class.vector.6 }
%class.vector.6 = type { ptr }
%class.svector.7 = type { %class.vector.8 }
%class.vector.8 = type { ptr }
%class.vector.9 = type { ptr }
%class.svector.10 = type { %class.vector.11 }
%class.vector.11 = type { ptr }
%"struct.sat::drat::stats" = type { i32, i32, i32, i32 }
%"struct.std::pair.52" = type { %"class.sat::literal", ptr }

; Function Attrs: mustprogress nounwind uwtable
define linkonce_odr hidden noundef nonnull align 8 dereferenceable(16) ptr @_ZN6vectorISt4pairIN3sat7literalEPNS1_6clauseEELb0EjEixEj(ptr noundef nonnull align 8 dereferenceable(8) %this, i32 noundef %idx) #4 comdat align 2 {
entry:
  %this.addr = alloca ptr, align 8
  %idx.addr = alloca i32, align 4
  store ptr %this, ptr %this.addr, align 8
  store i32 %idx, ptr %idx.addr, align 4
  %this1 = load ptr, ptr %this.addr, align 8
  %m_data = getelementptr inbounds %class.vector.8, ptr %this1, i32 0, i32 0
  %0 = load ptr, ptr %m_data, align 8
  %1 = load i32, ptr %idx.addr, align 4
  %idxprom = zext i32 %1 to i64
  %arrayidx = getelementptr inbounds %"struct.std::pair.52", ptr %0, i64 %idxprom
  ret ptr %arrayidx
}

; Function Attrs: mustprogress nounwind uwtable
define linkonce_odr hidden noundef i32 @_ZNK6vectorISt4pairIN3sat7literalEPNS1_6clauseEELb0EjE4sizeEv(ptr noundef nonnull align 8 dereferenceable(8) %this) #4 comdat align 2 {
entry:
  %retval = alloca i32, align 4
  %this.addr = alloca ptr, align 8
  store ptr %this, ptr %this.addr, align 8
  %this1 = load ptr, ptr %this.addr, align 8
  %m_data = getelementptr inbounds %class.vector.8, ptr %this1, i32 0, i32 0
  %0 = load ptr, ptr %m_data, align 8
  %cmp = icmp eq ptr %0, null
  br i1 %cmp, label %if.then, label %if.end

if.then:                                          ; preds = %entry
  store i32 0, ptr %retval, align 4
  br label %return

if.end:                                           ; preds = %entry
  %m_data2 = getelementptr inbounds %class.vector.8, ptr %this1, i32 0, i32 0
  %1 = load ptr, ptr %m_data2, align 8
  %arrayidx = getelementptr inbounds i32, ptr %1, i64 -1
  %2 = load i32, ptr %arrayidx, align 4
  store i32 %2, ptr %retval, align 4
  br label %return

return:                                           ; preds = %if.end, %if.then
  %3 = load i32, ptr %retval, align 4
  ret i32 %3
}

; Function Attrs: mustprogress uwtable
define hidden void @_ZN3sat4drat16assign_propagateENS_7literalEPNS_6clauseE(ptr noundef nonnull align 8 dereferenceable(664) %this, i32 %l.coerce, ptr noundef %c) #5 align 2 {
entry:
  %l = alloca %"class.sat::literal", align 4
  %this.addr = alloca ptr, align 8
  %c.addr = alloca ptr, align 8
  %num_units = alloca i32, align 4
  %agg.tmp = alloca %"class.sat::literal", align 4
  %i = alloca i32, align 4
  %agg.tmp6 = alloca %"class.sat::literal", align 4
  %coerce.dive = getelementptr inbounds %"class.sat::literal", ptr %l, i32 0, i32 0
  store i32 %l.coerce, ptr %coerce.dive, align 4
  store ptr %this, ptr %this.addr, align 8
  store ptr %c, ptr %c.addr, align 8
  %this1 = load ptr, ptr %this.addr, align 8
  %m_check_unsat = getelementptr inbounds %"class.sat::drat", ptr %this1, i32 0, i32 11
  %0 = load i8, ptr %m_check_unsat, align 1
  %tobool = trunc i8 %0 to i1
  br i1 %tobool, label %if.end, label %if.then

if.then:                                          ; preds = %entry
  br label %for.end

if.end:                                           ; preds = %entry
  %m_units = getelementptr inbounds %"class.sat::drat", ptr %this1, i32 0, i32 7
  %call = call noundef i32 @_ZNK6vectorISt4pairIN3sat7literalEPNS1_6clauseEELb0EjE4sizeEv(ptr noundef nonnull align 8 dereferenceable(8) %m_units)
  store i32 %call, ptr %num_units, align 4
  call void @llvm.memcpy.p0.p0.i64(ptr align 4 %agg.tmp, ptr align 4 %l, i64 4, i1 false)
  %1 = load ptr, ptr %c.addr, align 8
  %coerce.dive2 = getelementptr inbounds %"class.sat::literal", ptr %agg.tmp, i32 0, i32 0
  %2 = load i32, ptr %coerce.dive2, align 4
  call void @_ZN3sat4drat6assignENS_7literalEPNS_6clauseE(ptr noundef nonnull align 8 dereferenceable(664) %this1, i32 %2, ptr noundef %1)
  %3 = load i32, ptr %num_units, align 4
  store i32 %3, ptr %i, align 4
  br label %for.cond

for.cond:                                         ; preds = %for.inc, %if.end
  %m_inconsistent = getelementptr inbounds %"class.sat::drat", ptr %this1, i32 0, i32 10
  %4 = load i8, ptr %m_inconsistent, align 8
  %tobool3 = trunc i8 %4 to i1
  br i1 %tobool3, label %land.end, label %land.rhs

land.rhs:                                         ; preds = %for.cond
  %5 = load i32, ptr %i, align 4
  %m_units4 = getelementptr inbounds %"class.sat::drat", ptr %this1, i32 0, i32 7
  %call5 = call noundef i32 @_ZNK6vectorISt4pairIN3sat7literalEPNS1_6clauseEELb0EjE4sizeEv(ptr noundef nonnull align 8 dereferenceable(8) %m_units4)
  %cmp = icmp ult i32 %5, %call5
  br label %land.end

land.end:                                         ; preds = %land.rhs, %for.cond
  %6 = phi i1 [ false, %for.cond ], [ %cmp, %land.rhs ]
  br i1 %6, label %for.body, label %for.end

for.body:                                         ; preds = %land.end
  %m_units7 = getelementptr inbounds %"class.sat::drat", ptr %this1, i32 0, i32 7
  %7 = load i32, ptr %i, align 4
  %call8 = call noundef nonnull align 8 dereferenceable(16) ptr @_ZN6vectorISt4pairIN3sat7literalEPNS1_6clauseEELb0EjEixEj(ptr noundef nonnull align 8 dereferenceable(8) %m_units7, i32 noundef %7)
  %first = getelementptr inbounds %"struct.std::pair.52", ptr %call8, i32 0, i32 0
  call void @llvm.memcpy.p0.p0.i64(ptr align 4 %agg.tmp6, ptr align 8 %first, i64 4, i1 false)
  %coerce.dive9 = getelementptr inbounds %"class.sat::literal", ptr %agg.tmp6, i32 0, i32 0
  %8 = load i32, ptr %coerce.dive9, align 4
  call void @_ZN3sat4drat9propagateENS_7literalE(ptr noundef nonnull align 8 dereferenceable(664) %this1, i32 %8)
  br label %for.inc

for.inc:                                          ; preds = %for.body
  %9 = load i32, ptr %i, align 4
  %inc = add i32 %9, 1
  store i32 %inc, ptr %i, align 4
  br label %for.cond, !llvm.loop !14

for.end:                                          ; preds = %land.end, %if.then
  ret void
}