; Function Attrs: mustprogress uwtable
define hidden void @_ZN3sat4drat16assign_propagateENS_7literalEPNS_6clauseE(ptr noundef nonnull align 8 dereferenceable(664) %this, i32 %l.coerce, ptr noundef %c) local_unnamed_addr #3 align 2 {
entry:
  %m_check_unsat = getelementptr inbounds i8, ptr %this, i64 641
  %0 = load i8, ptr %m_check_unsat, align 1
  %1 = and i8 %0, 1
  %tobool.not = icmp eq i8 %1, 0
  br i1 %tobool.not, label %for.end, label %if.end

if.end:                                           ; preds = %entry
  %m_units = getelementptr inbounds i8, ptr %this, i64 616
  %2 = load ptr, ptr %m_units, align 8
  %cmp.i = icmp eq ptr %2, null
  br i1 %cmp.i, label %_ZNK6vectorISt4pairIN3sat7literalEPNS1_6clauseEELb0EjE4sizeEv.exit, label %if.end.i

if.end.i:                                         ; preds = %if.end
  %arrayidx.i = getelementptr inbounds i8, ptr %2, i64 -4
  %3 = load i32, ptr %arrayidx.i, align 4
  %4 = zext i32 %3 to i64
  br label %_ZNK6vectorISt4pairIN3sat7literalEPNS1_6clauseEELb0EjE4sizeEv.exit

_ZNK6vectorISt4pairIN3sat7literalEPNS1_6clauseEELb0EjE4sizeEv.exit: ; preds = %if.end, %if.end.i
  %retval.0.i = phi i64 [ %4, %if.end.i ], [ 0, %if.end ]
  tail call void @_ZN3sat4drat6assignENS_7literalEPNS_6clauseE(ptr noundef nonnull align 8 dereferenceable(664) %this, i32 %l.coerce, ptr noundef %c)
  %m_inconsistent = getelementptr inbounds i8, ptr %this, i64 640
  %5 = load i8, ptr %m_inconsistent, align 8
  %6 = and i8 %5, 1
  %tobool3.not9 = icmp eq i8 %6, 0
  br i1 %tobool3.not9, label %land.rhs, label %for.end

land.rhs:                                         ; preds = %_ZNK6vectorISt4pairIN3sat7literalEPNS1_6clauseEELb0EjE4sizeEv.exit, %for.body
  %indvars.iv = phi i64 [ %indvars.iv.next, %for.body ], [ %retval.0.i, %_ZNK6vectorISt4pairIN3sat7literalEPNS1_6clauseEELb0EjE4sizeEv.exit ]
  %7 = load ptr, ptr %m_units, align 8
  %cmp.i3 = icmp eq ptr %7, null
  br i1 %cmp.i3, label %_ZNK6vectorISt4pairIN3sat7literalEPNS1_6clauseEELb0EjE4sizeEv.exit7, label %if.end.i4

if.end.i4:                                        ; preds = %land.rhs
  %arrayidx.i5 = getelementptr inbounds i8, ptr %7, i64 -4
  %8 = load i32, ptr %arrayidx.i5, align 4
  br label %_ZNK6vectorISt4pairIN3sat7literalEPNS1_6clauseEELb0EjE4sizeEv.exit7

_ZNK6vectorISt4pairIN3sat7literalEPNS1_6clauseEELb0EjE4sizeEv.exit7: ; preds = %land.rhs, %if.end.i4
  %retval.0.i6 = phi i32 [ %8, %if.end.i4 ], [ 0, %land.rhs ]
  %9 = zext i32 %retval.0.i6 to i64
  %cmp = icmp ult i64 %indvars.iv, %9
  br i1 %cmp, label %for.body, label %for.end

for.body:                                         ; preds = %_ZNK6vectorISt4pairIN3sat7literalEPNS1_6clauseEELb0EjE4sizeEv.exit7
  %arrayidx.i8 = getelementptr inbounds %"struct.std::pair.52", ptr %7, i64 %indvars.iv
  %agg.tmp6.sroa.0.0.copyload = load i32, ptr %arrayidx.i8, align 8
  tail call void @_ZN3sat4drat9propagateENS_7literalE(ptr noundef nonnull align 8 dereferenceable(664) %this, i32 %agg.tmp6.sroa.0.0.copyload)
  %indvars.iv.next = add nuw nsw i64 %indvars.iv, 1
  %10 = load i8, ptr %m_inconsistent, align 8
  %11 = and i8 %10, 1
  %tobool3.not = icmp eq i8 %11, 0
  br i1 %tobool3.not, label %land.rhs, label %for.end, !llvm.loop !13

for.end:                                          ; preds = %_ZNK6vectorISt4pairIN3sat7literalEPNS1_6clauseEELb0EjE4sizeEv.exit7, %for.body, %_ZNK6vectorISt4pairIN3sat7literalEPNS1_6clauseEELb0EjE4sizeEv.exit, %entry
  ret void
}